target datalayout = "e-m:e-p270:32:32-p271:32:32-p272:64:64-i64:64-i128:128-f80:128-n8:16:32:64-S128"
target triple = "x86_64-pc-linux-gnu"

%union.ufmt_args = type { i64 }
%struct.u_printf_spec_info = type { i32, i32, i16, i16, i16, i8, i8, i8, i8, i8, i8, i8, i8, i8 }
%struct.ULocaleBundle = type { ptr, [5 x ptr], i8 }
%struct.u_printf_stream_handler = type { ptr, ptr }

@_ZL9gSpaceStr = internal constant [2 x i16] [i16 32, i16 0], align 2

; Function Attrs: mustprogress uwtable
define internal void @_ZL19u_printf_reset_signPPvPK18u_printf_spec_infoPDsPiP10UErrorCode(ptr noundef %0, ptr noundef %1, ptr noundef %2, ptr noundef %3, ptr noundef %4) #0 {
  %6 = alloca ptr, align 8
  %7 = alloca ptr, align 8
  %8 = alloca ptr, align 8
  %9 = alloca ptr, align 8
  %10 = alloca ptr, align 8
  store ptr %0, ptr %6, align 8, !tbaa !86
  store ptr %1, ptr %7, align 8, !tbaa !19
  store ptr %2, ptr %8, align 8, !tbaa !8
  store ptr %3, ptr %9, align 8, !tbaa !15
  store ptr %4, ptr %10, align 8, !tbaa !10
  %11 = load ptr, ptr %7, align 8, !tbaa !19
  %12 = getelementptr inbounds nuw %struct.u_printf_spec_info, ptr %11, i32 0, i32 8
  %13 = load i8, ptr %12, align 1, !tbaa !47
  %14 = icmp ne i8 %13, 0
  br i1 %14, label %15, label %21

15:                                               ; preds = %5
  %16 = load ptr, ptr %6, align 8, !tbaa !86
  %17 = load ptr, ptr %8, align 8, !tbaa !8
  %18 = load ptr, ptr %9, align 8, !tbaa !15
  %19 = load i32, ptr %18, align 4, !tbaa !36
  %20 = load ptr, ptr %10, align 8, !tbaa !10
  call void @unum_setTextAttribute_77(ptr noundef %16, i32 noundef 0, ptr noundef %17, i32 noundef %19, ptr noundef %20)
  br label %21

21:                                               ; preds = %15, %5
  ret void
}

; Function Attrs: inlinehint mustprogress nounwind uwtable
define internal noundef signext i8 @_ZL9U_FAILURE10UErrorCode(i32 noundef %0) #2 {
  %2 = alloca i32, align 4
  store i32 %0, ptr %2, align 4, !tbaa !23
  %3 = load i32, ptr %2, align 4, !tbaa !23
  %4 = icmp sgt i32 %3, 0
  %5 = zext i1 %4 to i8
  ret i8 %5
}

; Function Attrs: mustprogress uwtable
define internal void @_ZL17u_printf_set_signPPvPK18u_printf_spec_infoPDsPiP10UErrorCode(ptr noundef %0, ptr noundef %1, ptr noundef %2, ptr noundef %3, ptr noundef %4) #0 {
  %6 = alloca ptr, align 8
  %7 = alloca ptr, align 8
  %8 = alloca ptr, align 8
  %9 = alloca ptr, align 8
  %10 = alloca ptr, align 8
  %11 = alloca [8 x i16], align 16
  %12 = alloca i32, align 4
  store ptr %0, ptr %6, align 8, !tbaa !86
  store ptr %1, ptr %7, align 8, !tbaa !19
  store ptr %2, ptr %8, align 8, !tbaa !8
  store ptr %3, ptr %9, align 8, !tbaa !15
  store ptr %4, ptr %10, align 8, !tbaa !10
  %13 = load ptr, ptr %7, align 8, !tbaa !19
  %14 = getelementptr inbounds nuw %struct.u_printf_spec_info, ptr %13, i32 0, i32 8
  %15 = load i8, ptr %14, align 1, !tbaa !47
  %16 = icmp ne i8 %15, 0
  br i1 %16, label %17, label %42

17:                                               ; preds = %5
  %18 = load ptr, ptr %6, align 8, !tbaa !86
  %19 = load ptr, ptr %8, align 8, !tbaa !8
  %20 = load ptr, ptr %9, align 8, !tbaa !15
  %21 = load i32, ptr %20, align 4, !tbaa !36
  %22 = load ptr, ptr %10, align 8, !tbaa !10
  %23 = call i32 @unum_getTextAttribute_77(ptr noundef %18, i32 noundef 0, ptr noundef %19, i32 noundef %21, ptr noundef %22)
  %24 = load ptr, ptr %9, align 8, !tbaa !15
  store i32 %23, ptr %24, align 4, !tbaa !36
  %25 = load ptr, ptr %7, align 8, !tbaa !19
  %26 = getelementptr inbounds nuw %struct.u_printf_spec_info, ptr %25, i32 0, i32 6
  %27 = load i8, ptr %26, align 1, !tbaa !48
  %28 = icmp ne i8 %27, 0
  br i1 %28, label %29, label %32

29:                                               ; preds = %17
  %30 = load ptr, ptr %6, align 8, !tbaa !86
  %31 = load ptr, ptr %10, align 8, !tbaa !10
  call void @unum_setTextAttribute_77(ptr noundef %30, i32 noundef 0, ptr noundef @_ZL9gSpaceStr, i32 noundef 1, ptr noundef %31)
  br label %41

32:                                               ; preds = %17
  call void @llvm.lifetime.start.p0(i64 16, ptr %11) #9
  call void @llvm.lifetime.start.p0(i64 4, ptr %12) #9
  %33 = load ptr, ptr %6, align 8, !tbaa !86
  %34 = getelementptr inbounds [8 x i16], ptr %11, i64 0, i64 0
  %35 = load ptr, ptr %10, align 8, !tbaa !10
  %36 = call i32 @unum_getSymbol_77(ptr noundef %33, i32 noundef 7, ptr noundef %34, i32 noundef 8, ptr noundef %35)
  store i32 %36, ptr %12, align 4, !tbaa !36
  %37 = load ptr, ptr %6, align 8, !tbaa !86
  %38 = getelementptr inbounds [8 x i16], ptr %11, i64 0, i64 0
  %39 = load i32, ptr %12, align 4, !tbaa !36
  %40 = load ptr, ptr %10, align 8, !tbaa !10
  call void @unum_setTextAttribute_77(ptr noundef %37, i32 noundef 0, ptr noundef %38, i32 noundef %39, ptr noundef %40)
  call void @llvm.lifetime.end.p0(i64 4, ptr %12) #9
  call void @llvm.lifetime.end.p0(i64 16, ptr %11) #9
  br label %41

41:                                               ; preds = %32, %29
  br label %44

42:                                               ; preds = %5
  %43 = load ptr, ptr %9, align 8, !tbaa !15
  store i32 0, ptr %43, align 4, !tbaa !36
  br label %44

44:                                               ; preds = %42, %41
  ret void
}

; Function Attrs: mustprogress uwtable
define internal noundef i32 @_ZL27u_printf_scientific_handlerPK23u_printf_stream_handlerPvP13ULocaleBundlePK18u_printf_spec_infoPK9ufmt_args(ptr noundef %0, ptr noundef %1, ptr noundef %2, ptr noundef %3, ptr noundef %4) #0 {
  %6 = alloca i32, align 4
  %7 = alloca ptr, align 8
  %8 = alloca ptr, align 8
  %9 = alloca ptr, align 8
  %10 = alloca ptr, align 8
  %11 = alloca ptr, align 8
  %12 = alloca double, align 8
  %13 = alloca ptr, align 8
  %14 = alloca [1024 x i16], align 16
  %15 = alloca [1024 x i16], align 16
  %16 = alloca i32, align 4
  %17 = alloca i32, align 4
  %18 = alloca i32, align 4
  %19 = alloca i32, align 4
  %20 = alloca [8 x i16], align 16
  %21 = alloca i32, align 4
  %22 = alloca i32, align 4
  %23 = alloca i32, align 4
  %24 = alloca [8 x i16], align 16
  %25 = alloca i32, align 4
  %26 = alloca i32, align 4
  store ptr %0, ptr %7, align 8, !tbaa !3
  store ptr %1, ptr %8, align 8, !tbaa !10
  store ptr %2, ptr %9, align 8, !tbaa !13
  store ptr %3, ptr %10, align 8, !tbaa !19
  store ptr %4, ptr %11, align 8, !tbaa !21
  call void @llvm.lifetime.start.p0(i64 8, ptr %12) #9
  %27 = load ptr, ptr %11, align 8, !tbaa !21
  %28 = getelementptr inbounds %union.ufmt_args, ptr %27, i64 0
  %29 = load double, ptr %28, align 8, !tbaa !69
  store double %29, ptr %12, align 8, !tbaa !72
  call void @llvm.lifetime.start.p0(i64 8, ptr %13) #9
  call void @llvm.lifetime.start.p0(i64 2048, ptr %14) #9
  call void @llvm.lifetime.start.p0(i64 2048, ptr %15) #9
  call void @llvm.lifetime.start.p0(i64 4, ptr %16) #9
  store i32 2048, ptr %16, align 4, !tbaa !36
  call void @llvm.lifetime.start.p0(i64 4, ptr %17) #9
  call void @llvm.lifetime.start.p0(i64 4, ptr %18) #9
  call void @llvm.lifetime.start.p0(i64 4, ptr %19) #9
  store i32 0, ptr %19, align 4, !tbaa !23
  call void @llvm.lifetime.start.p0(i64 16, ptr %20) #9
  call void @llvm.lifetime.start.p0(i64 4, ptr %21) #9
  call void @llvm.lifetime.start.p0(i64 4, ptr %22) #9
  call void @llvm.lifetime.start.p0(i64 4, ptr %23) #9
  call void @llvm.lifetime.start.p0(i64 16, ptr %24) #9
  %30 = getelementptr inbounds [1024 x i16], ptr %15, i64 0, i64 0
  store i16 0, ptr %30, align 16, !tbaa !30
  %31 = load ptr, ptr %9, align 8, !tbaa !13
  %32 = call ptr @u_locbund_getNumberFormat_77(ptr noundef %31, i32 noundef 4)
  store ptr %32, ptr %13, align 8, !tbaa !86
  %33 = load ptr, ptr %13, align 8, !tbaa !86
  %34 = icmp eq ptr %33, null
  br i1 %34, label %35, label %36

35:                                               ; preds = %5
  store i32 0, ptr %6, align 4
  store i32 1, ptr %25, align 4
  br label %147

36:                                               ; preds = %5
  %37 = load ptr, ptr %13, align 8, !tbaa !86
  %38 = getelementptr inbounds [8 x i16], ptr %20, i64 0, i64 0
  %39 = call i32 @unum_getSymbol_77(ptr noundef %37, i32 noundef 11, ptr noundef %38, i32 noundef 16, ptr noundef %19)
  store i32 %39, ptr %21, align 4, !tbaa !36
  %40 = load ptr, ptr %10, align 8, !tbaa !19
  %41 = getelementptr inbounds nuw %struct.u_printf_spec_info, ptr %40, i32 0, i32 3
  %42 = load i16, ptr %41, align 2, !tbaa !60
  %43 = zext i16 %42 to i32
  %44 = icmp eq i32 %43, 101
  br i1 %44, label %45, label %53

45:                                               ; preds = %36
  %46 = getelementptr inbounds [8 x i16], ptr %24, i64 0, i64 0
  %47 = getelementptr inbounds [8 x i16], ptr %20, i64 0, i64 0
  %48 = load i32, ptr %21, align 4, !tbaa !36
  %49 = load ptr, ptr %9, align 8, !tbaa !13
  %50 = getelementptr inbounds nuw %struct.ULocaleBundle, ptr %49, i32 0, i32 0
  %51 = load ptr, ptr %50, align 8, !tbaa !88
  %52 = call i32 @u_strToLower_77(ptr noundef %46, i32 noundef 16, ptr noundef %47, i32 noundef %48, ptr noundef %51, ptr noundef %19)
  store i32 %52, ptr %22, align 4, !tbaa !36
  br label %61

53:                                               ; preds = %36
  %54 = getelementptr inbounds [8 x i16], ptr %24, i64 0, i64 0
  %55 = getelementptr inbounds [8 x i16], ptr %20, i64 0, i64 0
  %56 = load i32, ptr %21, align 4, !tbaa !36
  %57 = load ptr, ptr %9, align 8, !tbaa !13
  %58 = getelementptr inbounds nuw %struct.ULocaleBundle, ptr %57, i32 0, i32 0
  %59 = load ptr, ptr %58, align 8, !tbaa !88
  %60 = call i32 @u_strToUpper_77(ptr noundef %54, i32 noundef 16, ptr noundef %55, i32 noundef %56, ptr noundef %59, ptr noundef %19)
  store i32 %60, ptr %22, align 4, !tbaa !36
  br label %61

61:                                               ; preds = %53, %45
  %62 = load ptr, ptr %13, align 8, !tbaa !86
  %63 = getelementptr inbounds [8 x i16], ptr %24, i64 0, i64 0
  %64 = load i32, ptr %22, align 4, !tbaa !36
  call void @unum_setSymbol_77(ptr noundef %62, i32 noundef 11, ptr noundef %63, i32 noundef %64, ptr noundef %19)
  %65 = load ptr, ptr %13, align 8, !tbaa !86
  %66 = call i32 @unum_getAttribute_77(ptr noundef %65, i32 noundef 7)
  store i32 %66, ptr %17, align 4, !tbaa !36
  %67 = load ptr, ptr %13, align 8, !tbaa !86
  %68 = call i32 @unum_getAttribute_77(ptr noundef %67, i32 noundef 6)
  store i32 %68, ptr %18, align 4, !tbaa !36
  %69 = load ptr, ptr %10, align 8, !tbaa !19
  %70 = getelementptr inbounds nuw %struct.u_printf_spec_info, ptr %69, i32 0, i32 0
  %71 = load i32, ptr %70, align 4, !tbaa !42
  %72 = icmp ne i32 %71, -1
  br i1 %72, label %73, label %97

73:                                               ; preds = %61
  %74 = load ptr, ptr %10, align 8, !tbaa !19
  %75 = getelementptr inbounds nuw %struct.u_printf_spec_info, ptr %74, i32 0, i32 2
  %76 = load i16, ptr %75, align 4, !tbaa !61
  %77 = zext i16 %76 to i32
  %78 = icmp eq i32 %77, 101
  br i1 %78, label %85, label %79

79:                                               ; preds = %73
  %80 = load ptr, ptr %10, align 8, !tbaa !19
  %81 = getelementptr inbounds nuw %struct.u_printf_spec_info, ptr %80, i32 0, i32 2
  %82 = load i16, ptr %81, align 4, !tbaa !61
  %83 = zext i16 %82 to i32
  %84 = icmp eq i32 %83, 69
  br i1 %84, label %85, label %90

85:                                               ; preds = %79, %73
  %86 = load ptr, ptr %13, align 8, !tbaa !86
  %87 = load ptr, ptr %10, align 8, !tbaa !19
  %88 = getelementptr inbounds nuw %struct.u_printf_spec_info, ptr %87, i32 0, i32 0
  %89 = load i32, ptr %88, align 4, !tbaa !42
  call void @unum_setAttribute_77(ptr noundef %86, i32 noundef 8, i32 noundef %89)
  br label %96

90:                                               ; preds = %79
  %91 = load ptr, ptr %13, align 8, !tbaa !86
  call void @unum_setAttribute_77(ptr noundef %91, i32 noundef 7, i32 noundef 1)
  %92 = load ptr, ptr %13, align 8, !tbaa !86
  %93 = load ptr, ptr %10, align 8, !tbaa !19
  %94 = getelementptr inbounds nuw %struct.u_printf_spec_info, ptr %93, i32 0, i32 0
  %95 = load i32, ptr %94, align 4, !tbaa !42
  call void @unum_setAttribute_77(ptr noundef %92, i32 noundef 6, i32 noundef %95)
  br label %96

96:                                               ; preds = %90, %85
  br label %107

97:                                               ; preds = %61
  %98 = load ptr, ptr %10, align 8, !tbaa !19
  %99 = getelementptr inbounds nuw %struct.u_printf_spec_info, ptr %98, i32 0, i32 5
  %100 = load i8, ptr %99, align 2, !tbaa !49
  %101 = icmp ne i8 %100, 0
  br i1 %101, label %102, label %104

102:                                              ; preds = %97
  %103 = load ptr, ptr %13, align 8, !tbaa !86
  call void @unum_setAttribute_77(ptr noundef %103, i32 noundef 8, i32 noundef 6)
  br label %106

104:                                              ; preds = %97
  %105 = load ptr, ptr %13, align 8, !tbaa !86
  call void @unum_setAttribute_77(ptr noundef %105, i32 noundef 8, i32 noundef 6)
  br label %106

106:                                              ; preds = %104, %102
  br label %107

107:                                              ; preds = %106, %96
  %108 = load ptr, ptr %10, align 8, !tbaa !19
  %109 = getelementptr inbounds nuw %struct.u_printf_spec_info, ptr %108, i32 0, i32 8
  %110 = load i8, ptr %109, align 1, !tbaa !47
  %111 = icmp ne i8 %110, 0
  br i1 %111, label %112, label %116

112:                                              ; preds = %107
  %113 = load ptr, ptr %13, align 8, !tbaa !86
  %114 = load ptr, ptr %10, align 8, !tbaa !19
  %115 = getelementptr inbounds [1024 x i16], ptr %15, i64 0, i64 0
  call void @_ZL17u_printf_set_signPPvPK18u_printf_spec_infoPDsPiP10UErrorCode(ptr noundef %113, ptr noundef %114, ptr noundef %115, ptr noundef %16, ptr noundef %19)
  br label %116

116:                                              ; preds = %112, %107
  %117 = load ptr, ptr %13, align 8, !tbaa !86
  %118 = load double, ptr %12, align 8, !tbaa !72
  %119 = getelementptr inbounds [1024 x i16], ptr %14, i64 0, i64 0
  %120 = call i32 @unum_formatDouble_77(ptr noundef %117, double noundef %118, ptr noundef %119, i32 noundef 1024, ptr noundef null, ptr noundef %19)
  store i32 %120, ptr %23, align 4, !tbaa !36
  %121 = load i32, ptr %19, align 4, !tbaa !23
  %122 = call noundef signext i8 @_ZL9U_FAILURE10UErrorCode(i32 noundef %121)
  %123 = icmp ne i8 %122, 0
  br i1 %123, label %124, label %125

124:                                              ; preds = %116
  store i32 0, ptr %23, align 4, !tbaa !36
  br label %125

125:                                              ; preds = %124, %116
  %126 = load ptr, ptr %13, align 8, !tbaa !86
  %127 = load i32, ptr %17, align 4, !tbaa !36
  call void @unum_setAttribute_77(ptr noundef %126, i32 noundef 7, i32 noundef %127)
  %128 = load ptr, ptr %13, align 8, !tbaa !86
  %129 = load i32, ptr %18, align 4, !tbaa !36
  call void @unum_setAttribute_77(ptr noundef %128, i32 noundef 6, i32 noundef %129)
  %130 = load ptr, ptr %10, align 8, !tbaa !19
  %131 = getelementptr inbounds nuw %struct.u_printf_spec_info, ptr %130, i32 0, i32 8
  %132 = load i8, ptr %131, align 1, !tbaa !47
  %133 = icmp ne i8 %132, 0
  br i1 %133, label %134, label %138

134:                                              ; preds = %125
  call void @llvm.lifetime.start.p0(i64 4, ptr %26) #9
  store i32 0, ptr %26, align 4, !tbaa !23
  %135 = load ptr, ptr %13, align 8, !tbaa !86
  %136 = load ptr, ptr %10, align 8, !tbaa !19
  %137 = getelementptr inbounds [1024 x i16], ptr %15, i64 0, i64 0
  call void @_ZL19u_printf_reset_signPPvPK18u_printf_spec_infoPDsPiP10UErrorCode(ptr noundef %135, ptr noundef %136, ptr noundef %137, ptr noundef %16, ptr noundef %26)
  call void @llvm.lifetime.end.p0(i64 4, ptr %26) #9
  br label %138

138:                                              ; preds = %134, %125
  %139 = load ptr, ptr %7, align 8, !tbaa !3
  %140 = getelementptr inbounds nuw %struct.u_printf_stream_handler, ptr %139, i32 0, i32 1
  %141 = load ptr, ptr %140, align 8, !tbaa !85
  %142 = load ptr, ptr %8, align 8, !tbaa !10
  %143 = load ptr, ptr %10, align 8, !tbaa !19
  %144 = getelementptr inbounds [1024 x i16], ptr %14, i64 0, i64 0
  %145 = load i32, ptr %23, align 4, !tbaa !36
  %146 = call noundef i32 %141(ptr noundef %142, ptr noundef %143, ptr noundef %144, i32 noundef %145)
  store i32 %146, ptr %6, align 4
  store i32 1, ptr %25, align 4
  br label %147

147:                                              ; preds = %138, %35
  call void @llvm.lifetime.end.p0(i64 16, ptr %24) #9
  call void @llvm.lifetime.end.p0(i64 4, ptr %23) #9
  call void @llvm.lifetime.end.p0(i64 4, ptr %22) #9
  call void @llvm.lifetime.end.p0(i64 4, ptr %21) #9
  call void @llvm.lifetime.end.p0(i64 16, ptr %20) #9
  call void @llvm.lifetime.end.p0(i64 4, ptr %19) #9
  call void @llvm.lifetime.end.p0(i64 4, ptr %18) #9
  call void @llvm.lifetime.end.p0(i64 4, ptr %17) #9
  call void @llvm.lifetime.end.p0(i64 4, ptr %16) #9
  call void @llvm.lifetime.end.p0(i64 2048, ptr %15) #9
  call void @llvm.lifetime.end.p0(i64 2048, ptr %14) #9
  call void @llvm.lifetime.end.p0(i64 8, ptr %13) #9
  call void @llvm.lifetime.end.p0(i64 8, ptr %12) #9
  %148 = load i32, ptr %6, align 4
  ret i32 %148
}