; Function Attrs: mustprogress uwtable
define internal noundef i32 @_ZL27u_printf_scientific_handlerPK23u_printf_stream_handlerPvP13ULocaleBundlePK18u_printf_spec_infoPK9ufmt_args(ptr noundef readonly captures(none) %0, ptr noundef %1, ptr noundef %2, ptr noundef %3, ptr noundef readonly captures(none) %4) #0 {
  %6 = alloca [8 x i16], align 16
  %7 = alloca [1024 x i16], align 16
  %8 = alloca [1024 x i16], align 16
  %9 = alloca i32, align 4
  %10 = alloca [8 x i16], align 16
  %11 = alloca [8 x i16], align 16
  %12 = alloca i32, align 4
  %13 = load double, ptr %4, align 8, !tbaa !20
  call void @llvm.lifetime.start.p0(i64 2048, ptr nonnull %7) #9
  call void @llvm.lifetime.start.p0(i64 2048, ptr nonnull %8) #9
  call void @llvm.lifetime.start.p0(i64 4, ptr nonnull %9) #9
  store i32 0, ptr %9, align 4, !tbaa !65
  call void @llvm.lifetime.start.p0(i64 16, ptr nonnull %10) #9
  call void @llvm.lifetime.start.p0(i64 16, ptr nonnull %11) #9
  store i16 0, ptr %8, align 16, !tbaa !12
  %14 = tail call ptr @u_locbund_getNumberFormat_77(ptr noundef %2, i32 noundef 4)
  %15 = icmp eq ptr %14, null
  br i1 %15, label %54, label %16

16:                                               ; preds = %5
  %17 = call i32 @unum_getSymbol_77(ptr noundef nonnull %14, i32 noundef 11, ptr noundef nonnull %10, i32 noundef 16, ptr noundef nonnull %9)
  %18 = getelementptr inbounds nuw i8, ptr %3, i64 10
  %19 = load i16, ptr %18, align 2, !tbaa !60
  %20 = icmp eq i16 %19, 101
  %21 = load ptr, ptr %2, align 8, !tbaa !67
  br i1 %20, label %22, label %24

22:                                               ; preds = %16
  %23 = call i32 @u_strToLower_77(ptr noundef nonnull %11, i32 noundef 16, ptr noundef nonnull %10, i32 noundef %17, ptr noundef %21, ptr noundef nonnull %9)
  br label %26

24:                                               ; preds = %16
  %25 = call i32 @u_strToUpper_77(ptr noundef nonnull %11, i32 noundef 16, ptr noundef nonnull %10, i32 noundef %17, ptr noundef %21, ptr noundef nonnull %9)
  br label %26

26:                                               ; preds = %24, %22
  %.040 = phi i32 [ %23, %22 ], [ %25, %24 ]
  call void @unum_setSymbol_77(ptr noundef nonnull %14, i32 noundef 11, ptr noundef nonnull %11, i32 noundef %.040, ptr noundef nonnull %9)
  %27 = call i32 @unum_getAttribute_77(ptr noundef nonnull %14, i32 noundef 7)
  %28 = call i32 @unum_getAttribute_77(ptr noundef nonnull %14, i32 noundef 6)
  %29 = load i32, ptr %3, align 4, !tbaa !42
  %.not = icmp eq i32 %29, -1
  br i1 %.not, label %36, label %30

30:                                               ; preds = %26
  %31 = getelementptr inbounds nuw i8, ptr %3, i64 8
  %32 = load i16, ptr %31, align 4, !tbaa !61
  switch i16 %32, label %34 [
    i16 101, label %33
    i16 69, label %33
  ]

33:                                               ; preds = %30, %30
  call void @unum_setAttribute_77(ptr noundef nonnull %14, i32 noundef 8, i32 noundef %29)
  br label %37

34:                                               ; preds = %30
  call void @unum_setAttribute_77(ptr noundef nonnull %14, i32 noundef 7, i32 noundef 1)
  %35 = load i32, ptr %3, align 4, !tbaa !42
  call void @unum_setAttribute_77(ptr noundef nonnull %14, i32 noundef 6, i32 noundef %35)
  br label %37

36:                                               ; preds = %26
  call void @unum_setAttribute_77(ptr noundef nonnull %14, i32 noundef 8, i32 noundef 6)
  br label %37

37:                                               ; preds = %36, %33, %34
  %38 = getelementptr inbounds nuw i8, ptr %3, i64 17
  %39 = load i8, ptr %38, align 1, !tbaa !47
  %.not45 = icmp eq i8 %39, 0
  br i1 %.not45, label %_ZL17u_printf_set_signPPvPK18u_printf_spec_infoPDsPiP10UErrorCode.exit, label %40

40:                                               ; preds = %37
  %41 = call i32 @unum_getTextAttribute_77(ptr noundef nonnull %14, i32 noundef 0, ptr noundef nonnull %8, i32 noundef 2048, ptr noundef nonnull %9)
  %42 = getelementptr inbounds nuw i8, ptr %3, i64 15
  %43 = load i8, ptr %42, align 1, !tbaa !48
  %.not14.i = icmp eq i8 %43, 0
  br i1 %.not14.i, label %45, label %44

44:                                               ; preds = %40
  call void @unum_setTextAttribute_77(ptr noundef nonnull %14, i32 noundef 0, ptr noundef nonnull @_ZL9gSpaceStr, i32 noundef 1, ptr noundef nonnull %9)
  br label %_ZL17u_printf_set_signPPvPK18u_printf_spec_infoPDsPiP10UErrorCode.exit

45:                                               ; preds = %40
  call void @llvm.lifetime.start.p0(i64 16, ptr nonnull %6) #9
  %46 = call i32 @unum_getSymbol_77(ptr noundef nonnull %14, i32 noundef 7, ptr noundef nonnull %6, i32 noundef 8, ptr noundef nonnull %9)
  call void @unum_setTextAttribute_77(ptr noundef nonnull %14, i32 noundef 0, ptr noundef nonnull %6, i32 noundef %46, ptr noundef nonnull %9)
  call void @llvm.lifetime.end.p0(i64 16, ptr nonnull %6) #9
  br label %_ZL17u_printf_set_signPPvPK18u_printf_spec_infoPDsPiP10UErrorCode.exit

_ZL17u_printf_set_signPPvPK18u_printf_spec_infoPDsPiP10UErrorCode.exit: ; preds = %45, %44, %37
  %.0 = phi i32 [ 2048, %37 ], [ %41, %44 ], [ %41, %45 ]
  %47 = call i32 @unum_formatDouble_77(ptr noundef nonnull %14, double noundef %13, ptr noundef nonnull %7, i32 noundef 1024, ptr noundef null, ptr noundef nonnull %9)
  %48 = load i32, ptr %9, align 4, !tbaa !65
  %.inv = icmp sgt i32 %48, 0
  %spec.select = select i1 %.inv, i32 0, i32 %47
  call void @unum_setAttribute_77(ptr noundef nonnull %14, i32 noundef 7, i32 noundef %27)
  call void @unum_setAttribute_77(ptr noundef nonnull %14, i32 noundef 6, i32 noundef %28)
  %49 = load i8, ptr %38, align 1, !tbaa !47
  %.not47 = icmp eq i8 %49, 0
  br i1 %.not47, label %50, label %_ZL19u_printf_reset_signPPvPK18u_printf_spec_infoPDsPiP10UErrorCode.exit

_ZL19u_printf_reset_signPPvPK18u_printf_spec_infoPDsPiP10UErrorCode.exit: ; preds = %_ZL17u_printf_set_signPPvPK18u_printf_spec_infoPDsPiP10UErrorCode.exit
  call void @llvm.lifetime.start.p0(i64 4, ptr nonnull %12) #9
  store i32 0, ptr %12, align 4, !tbaa !65
  call void @unum_setTextAttribute_77(ptr noundef nonnull %14, i32 noundef 0, ptr noundef nonnull %8, i32 noundef %.0, ptr noundef nonnull %12)
  call void @llvm.lifetime.end.p0(i64 4, ptr nonnull %12) #9
  br label %50

50:                                               ; preds = %_ZL19u_printf_reset_signPPvPK18u_printf_spec_infoPDsPiP10UErrorCode.exit, %_ZL17u_printf_set_signPPvPK18u_printf_spec_infoPDsPiP10UErrorCode.exit
  %51 = getelementptr inbounds nuw i8, ptr %0, i64 8
  %52 = load ptr, ptr %51, align 8, !tbaa !64
  %53 = call noundef i32 %52(ptr noundef %1, ptr noundef nonnull %3, ptr noundef nonnull %7, i32 noundef %spec.select)
  br label %54

54:                                               ; preds = %5, %50
  %.041 = phi i32 [ %53, %50 ], [ 0, %5 ]
  call void @llvm.lifetime.end.p0(i64 16, ptr nonnull %11) #9
  call void @llvm.lifetime.end.p0(i64 16, ptr nonnull %10) #9
  call void @llvm.lifetime.end.p0(i64 4, ptr nonnull %9) #9
  call void @llvm.lifetime.end.p0(i64 2048, ptr nonnull %8) #9
  call void @llvm.lifetime.end.p0(i64 2048, ptr nonnull %7) #9
  ret i32 %.041
}